target datalayout = "e-m:e-p270:32:32-p271:32:32-p272:64:64-i64:64-i128:128-f80:128-n8:16:32:64-S128"
target triple = "x86_64-pc-linux-gnu"

%struct.H5C_class_t = type { i32, ptr, i32, i32, ptr, ptr, ptr, ptr, ptr, ptr, ptr, ptr, ptr, ptr }
%struct.H5HF_hdr_t = type { %struct.H5C_cache_entry_t, i32, i32, i8, i8, i8, i8, %struct.H5HF_dtable_t, i64, i64, i32, i64, i64, %struct.H5O_pline_t, i64, i32, i64, i64, i64, i64, i64, i64, i64, i64, i64, i64, i64, i32, ptr, i64, i8, i8, i8, ptr, i32, ptr, %struct.H5HF_block_iter_t, ptr, i64, i8, i8, i64, i8, i8, i8, i8 }
%struct.H5C_cache_entry_t = type { ptr, i64, i64, ptr, i8, ptr, i8, i8, i8, i8, i32, i8, i8, i8, i8, i8, i32, ptr, i32, i32, i32, i32, i32, i8, i8, ptr, ptr, ptr, ptr, ptr, ptr, i8, i32, i8, i64, ptr, i64, i64, i32, i8, i32, i32, i8, ptr, ptr, ptr }
%struct.H5HF_dtable_t = type { %struct.H5HF_dtable_cparam_t, i64, i32, i32, i32, i32, i32, i32, i32, i64, ptr, ptr, ptr, ptr }
%struct.H5HF_dtable_cparam_t = type { i32, i64, i64, i32, i32 }
%struct.H5O_pline_t = type { %struct.H5O_shared_t, i32, i64, i64, ptr }
%struct.H5O_shared_t = type { i32, ptr, i32, %union.anon }
%union.anon = type { %struct.H5O_mesg_loc_t }
%struct.H5O_mesg_loc_t = type { i32, i64 }
%struct.H5HF_block_iter_t = type { i8, ptr }
%struct.H5HF_debug_iter_ud2_t = type { ptr, ptr, i32, i32 }

@H5HF_init_g = external global i8, align 1
@H5_libterm_g = external global i8, align 1
@.str = private unnamed_addr constant [101 x i8] c"generated/home/dtcxzyw/WorkSpace/Projects/compilers/llvm-opt-benchmark/bench/hdf5/hdf5/src/H5HFdbg.c\00", align 1
@H5E_HEAP_g = external global i64, align 8
@H5E_CANTPROTECT_g = external global i64, align 8
@.str.43 = private unnamed_addr constant [38 x i8] c"unable to protect fractal heap header\00", align 1
@H5AC_FHEAP_HDR = external constant [1 x %struct.H5C_class_t], align 16
@H5E_PROTECT_g = external global i64, align 8
@.str.44 = private unnamed_addr constant [38 x i8] c"unable to release fractal heap header\00", align 1
@H5E_CANTINIT_g = external global i64, align 8
@.str.51 = private unnamed_addr constant [33 x i8] c"can't initialize heap free space\00", align 1
@H5E_BADITER_g = external global i64, align 8
@.str.53 = private unnamed_addr constant [37 x i8] c"can't iterate over heap's free space\00", align 1
@H5E_CANTRELEASE_g = external global i64, align 8
@.str.54 = private unnamed_addr constant [30 x i8] c"can't release free space info\00", align 1
@__func__.H5HF_sects_debug = private unnamed_addr constant [17 x i8] c"H5HF_sects_debug\00", align 1

; Function Attrs: nounwind uwtable
define i32 @H5HF_sects_debug(ptr noundef %0, i64 noundef %1, ptr noundef %2, i32 noundef %3, i32 noundef %4) #0 {
  %6 = alloca i32, align 4
  %7 = alloca ptr, align 8
  %8 = alloca i64, align 8
  %9 = alloca ptr, align 8
  %10 = alloca i32, align 4
  %11 = alloca i32, align 4
  %12 = alloca ptr, align 8
  %13 = alloca i32, align 4
  %14 = alloca i8, align 1
  %15 = alloca %struct.H5HF_debug_iter_ud2_t, align 8
  %16 = alloca i32, align 4
  store ptr %0, ptr %7, align 8, !tbaa !108
  store i64 %1, ptr %8, align 8, !tbaa !20
  store ptr %2, ptr %9, align 8, !tbaa !9
  store i32 %3, ptr %10, align 4, !tbaa !11
  store i32 %4, ptr %11, align 4, !tbaa !11
  call void @llvm.lifetime.start.p0(i64 8, ptr %12) #8
  store ptr null, ptr %12, align 8, !tbaa !22
  call void @llvm.lifetime.start.p0(i64 4, ptr %13) #8
  store i32 0, ptr %13, align 4, !tbaa !11
  call void @llvm.lifetime.start.p0(i64 1, ptr %14) #8
  store i8 0, ptr %14, align 1, !tbaa !15
  %17 = load i8, ptr @H5HF_init_g, align 1, !tbaa !15, !range !17, !noundef !18
  %18 = trunc i8 %17 to i1
  br i1 %18, label %23, label %19

19:                                               ; preds = %5
  %20 = load i8, ptr @H5_libterm_g, align 1, !tbaa !15, !range !17, !noundef !18
  %21 = trunc i8 %20 to i1
  %22 = xor i1 %21, true
  br label %23

23:                                               ; preds = %19, %5
  %24 = phi i1 [ false, %5 ], [ %22, %19 ]
  %25 = xor i1 %24, true
  %26 = xor i1 %25, true
  %27 = zext i1 %26 to i32
  %28 = sext i32 %27 to i64
  %29 = call i64 @llvm.expect.i64(i64 %28, i64 0)
  %30 = icmp ne i64 %29, 0
  br i1 %30, label %31, label %32

31:                                               ; preds = %23
  store i8 1, ptr @H5HF_init_g, align 1, !tbaa !15
  br label %32

32:                                               ; preds = %31, %23
  %33 = load i8, ptr @H5HF_init_g, align 1, !tbaa !15, !range !17, !noundef !18
  %34 = trunc i8 %33 to i1
  br i1 %34, label %39, label %35

35:                                               ; preds = %32
  %36 = load i8, ptr @H5_libterm_g, align 1, !tbaa !15, !range !17, !noundef !18
  %37 = trunc i8 %36 to i1
  %38 = xor i1 %37, true
  br label %39

39:                                               ; preds = %35, %32
  %40 = phi i1 [ true, %32 ], [ %38, %35 ]
  %41 = xor i1 %40, true
  %42 = xor i1 %41, true
  %43 = zext i1 %42 to i32
  %44 = sext i32 %43 to i64
  %45 = call i64 @llvm.expect.i64(i64 %44, i64 1)
  %46 = icmp ne i64 %45, 0
  br i1 %46, label %47, label %189

47:                                               ; preds = %39
  %48 = load ptr, ptr %7, align 8, !tbaa !108
  %49 = load i64, ptr %8, align 8, !tbaa !20
  %50 = call ptr @H5HF__hdr_protect(ptr noundef %48, i64 noundef %49, i32 noundef 128)
  store ptr %50, ptr %12, align 8, !tbaa !22
  %51 = icmp eq ptr null, %50
  br i1 %51, label %52, label %71

52:                                               ; preds = %47
  br label %53

53:                                               ; preds = %52
  br label %54

54:                                               ; preds = %53
  br label %55

55:                                               ; preds = %54
  %56 = load i64, ptr @H5E_HEAP_g, align 8, !tbaa !20
  %57 = load i64, ptr @H5E_CANTPROTECT_g, align 8, !tbaa !20
  %58 = call i32 (ptr, ptr, i32, i64, i64, ptr, ...) @H5E_printf_stack(ptr noundef @.str, ptr noundef @__func__.H5HF_sects_debug, i32 noundef 776, i64 noundef %56, i64 noundef %57, ptr noundef @.str.43)
  br label %59

59:                                               ; preds = %55
  br label %60

60:                                               ; preds = %59
  store i8 1, ptr %14, align 1, !tbaa !15
  %61 = load i8, ptr %14, align 1, !tbaa !15, !range !17, !noundef !18
  %62 = trunc i8 %61 to i1
  %63 = zext i1 %62 to i8
  store i8 %63, ptr %14, align 1, !tbaa !15
  br label %64

64:                                               ; preds = %60
  br label %65

65:                                               ; preds = %64
  br label %66

66:                                               ; preds = %65
  store i32 -1, ptr %13, align 4, !tbaa !11
  br label %163

67:                                               ; No predecessors!
  br label %68

68:                                               ; preds = %67
  br label %69

69:                                               ; preds = %68
  br label %70

70:                                               ; preds = %69
  br label %71

71:                                               ; preds = %70, %47
  %72 = load ptr, ptr %12, align 8, !tbaa !22
  %73 = call i32 @H5HF__space_start(ptr noundef %72, i1 noundef zeroext false)
  %74 = icmp slt i32 %73, 0
  br i1 %74, label %75, label %94

75:                                               ; preds = %71
  br label %76

76:                                               ; preds = %75
  br label %77

77:                                               ; preds = %76
  br label %78

78:                                               ; preds = %77
  %79 = load i64, ptr @H5E_HEAP_g, align 8, !tbaa !20
  %80 = load i64, ptr @H5E_CANTINIT_g, align 8, !tbaa !20
  %81 = call i32 (ptr, ptr, i32, i64, i64, ptr, ...) @H5E_printf_stack(ptr noundef @.str, ptr noundef @__func__.H5HF_sects_debug, i32 noundef 780, i64 noundef %79, i64 noundef %80, ptr noundef @.str.51)
  br label %82

82:                                               ; preds = %78
  br label %83

83:                                               ; preds = %82
  store i8 1, ptr %14, align 1, !tbaa !15
  %84 = load i8, ptr %14, align 1, !tbaa !15, !range !17, !noundef !18
  %85 = trunc i8 %84 to i1
  %86 = zext i1 %85 to i8
  store i8 %86, ptr %14, align 1, !tbaa !15
  br label %87

87:                                               ; preds = %83
  br label %88

88:                                               ; preds = %87
  br label %89

89:                                               ; preds = %88
  store i32 -1, ptr %13, align 4, !tbaa !11
  br label %163

90:                                               ; No predecessors!
  br label %91

91:                                               ; preds = %90
  br label %92

92:                                               ; preds = %91
  br label %93

93:                                               ; preds = %92
  br label %94

94:                                               ; preds = %93, %71
  %95 = load ptr, ptr %12, align 8, !tbaa !22
  %96 = getelementptr inbounds nuw %struct.H5HF_hdr_t, ptr %95, i32 0, i32 35
  %97 = load ptr, ptr %96, align 8, !tbaa !117
  %98 = icmp ne ptr %97, null
  br i1 %98, label %99, label %162

99:                                               ; preds = %94
  call void @llvm.lifetime.start.p0(i64 24, ptr %15) #8
  %100 = load ptr, ptr %12, align 8, !tbaa !22
  %101 = getelementptr inbounds nuw %struct.H5HF_hdr_t, ptr %100, i32 0, i32 35
  %102 = load ptr, ptr %101, align 8, !tbaa !117
  %103 = getelementptr inbounds nuw %struct.H5HF_debug_iter_ud2_t, ptr %15, i32 0, i32 0
  store ptr %102, ptr %103, align 8, !tbaa !137
  %104 = load ptr, ptr %9, align 8, !tbaa !9
  %105 = getelementptr inbounds nuw %struct.H5HF_debug_iter_ud2_t, ptr %15, i32 0, i32 1
  store ptr %104, ptr %105, align 8, !tbaa !139
  %106 = load i32, ptr %10, align 4, !tbaa !11
  %107 = getelementptr inbounds nuw %struct.H5HF_debug_iter_ud2_t, ptr %15, i32 0, i32 2
  store i32 %106, ptr %107, align 8, !tbaa !140
  %108 = load i32, ptr %11, align 4, !tbaa !11
  %109 = getelementptr inbounds nuw %struct.H5HF_debug_iter_ud2_t, ptr %15, i32 0, i32 3
  store i32 %108, ptr %109, align 4, !tbaa !141
  %110 = load ptr, ptr %7, align 8, !tbaa !108
  %111 = load ptr, ptr %12, align 8, !tbaa !22
  %112 = getelementptr inbounds nuw %struct.H5HF_hdr_t, ptr %111, i32 0, i32 35
  %113 = load ptr, ptr %112, align 8, !tbaa !117
  %114 = call i32 @H5FS_sect_iterate(ptr noundef %110, ptr noundef %113, ptr noundef @H5HF_sects_debug_cb, ptr noundef %15)
  %115 = icmp slt i32 %114, 0
  br i1 %115, label %116, label %135

116:                                              ; preds = %99
  br label %117

117:                                              ; preds = %116
  br label %118

118:                                              ; preds = %117
  br label %119

119:                                              ; preds = %118
  %120 = load i64, ptr @H5E_HEAP_g, align 8, !tbaa !20
  %121 = load i64, ptr @H5E_BADITER_g, align 8, !tbaa !20
  %122 = call i32 (ptr, ptr, i32, i64, i64, ptr, ...) @H5E_printf_stack(ptr noundef @.str, ptr noundef @__func__.H5HF_sects_debug, i32 noundef 794, i64 noundef %120, i64 noundef %121, ptr noundef @.str.53)
  br label %123

123:                                              ; preds = %119
  br label %124

124:                                              ; preds = %123
  store i8 1, ptr %14, align 1, !tbaa !15
  %125 = load i8, ptr %14, align 1, !tbaa !15, !range !17, !noundef !18
  %126 = trunc i8 %125 to i1
  %127 = zext i1 %126 to i8
  store i8 %127, ptr %14, align 1, !tbaa !15
  br label %128

128:                                              ; preds = %124
  br label %129

129:                                              ; preds = %128
  br label %130

130:                                              ; preds = %129
  store i32 -1, ptr %13, align 4, !tbaa !11
  store i32 10, ptr %16, align 4
  br label %159

131:                                              ; No predecessors!
  br label %132

132:                                              ; preds = %131
  br label %133

133:                                              ; preds = %132
  br label %134

134:                                              ; preds = %133
  br label %135

135:                                              ; preds = %134, %99
  %136 = load ptr, ptr %12, align 8, !tbaa !22
  %137 = call i32 @H5HF__space_close(ptr noundef %136)
  %138 = icmp slt i32 %137, 0
  br i1 %138, label %139, label %158

139:                                              ; preds = %135
  br label %140

140:                                              ; preds = %139
  br label %141

141:                                              ; preds = %140
  br label %142

142:                                              ; preds = %141
  %143 = load i64, ptr @H5E_HEAP_g, align 8, !tbaa !20
  %144 = load i64, ptr @H5E_CANTRELEASE_g, align 8, !tbaa !20
  %145 = call i32 (ptr, ptr, i32, i64, i64, ptr, ...) @H5E_printf_stack(ptr noundef @.str, ptr noundef @__func__.H5HF_sects_debug, i32 noundef 798, i64 noundef %143, i64 noundef %144, ptr noundef @.str.54)
  br label %146

146:                                              ; preds = %142
  br label %147

147:                                              ; preds = %146
  store i8 1, ptr %14, align 1, !tbaa !15
  %148 = load i8, ptr %14, align 1, !tbaa !15, !range !17, !noundef !18
  %149 = trunc i8 %148 to i1
  %150 = zext i1 %149 to i8
  store i8 %150, ptr %14, align 1, !tbaa !15
  br label %151

151:                                              ; preds = %147
  br label %152

152:                                              ; preds = %151
  br label %153

153:                                              ; preds = %152
  store i32 -1, ptr %13, align 4, !tbaa !11
  store i32 10, ptr %16, align 4
  br label %159

154:                                              ; No predecessors!
  br label %155

155:                                              ; preds = %154
  br label %156

156:                                              ; preds = %155
  br label %157

157:                                              ; preds = %156
  br label %158

158:                                              ; preds = %157, %135
  store i32 0, ptr %16, align 4
  br label %159

159:                                              ; preds = %153, %130, %158
  call void @llvm.lifetime.end.p0(i64 24, ptr %15) #8
  %160 = load i32, ptr %16, align 4
  switch i32 %160, label %191 [
    i32 0, label %161
    i32 10, label %163
  ]

161:                                              ; preds = %159
  br label %162

162:                                              ; preds = %161, %94
  br label %163

163:                                              ; preds = %162, %159, %89, %66
  %164 = load ptr, ptr %12, align 8, !tbaa !22
  %165 = icmp ne ptr %164, null
  br i1 %165, label %166, label %188

166:                                              ; preds = %163
  %167 = load ptr, ptr %7, align 8, !tbaa !108
  %168 = load i64, ptr %8, align 8, !tbaa !20
  %169 = load ptr, ptr %12, align 8, !tbaa !22
  %170 = call i32 @H5AC_unprotect(ptr noundef %167, ptr noundef @H5AC_FHEAP_HDR, i64 noundef %168, ptr noundef %169, i32 noundef 0)
  %171 = icmp slt i32 %170, 0
  br i1 %171, label %172, label %188

172:                                              ; preds = %166
  br label %173

173:                                              ; preds = %172
  br label %174

174:                                              ; preds = %173
  br label %175

175:                                              ; preds = %174
  %176 = load i64, ptr @H5E_HEAP_g, align 8, !tbaa !20
  %177 = load i64, ptr @H5E_PROTECT_g, align 8, !tbaa !20
  %178 = call i32 (ptr, ptr, i32, i64, i64, ptr, ...) @H5E_printf_stack(ptr noundef @.str, ptr noundef @__func__.H5HF_sects_debug, i32 noundef 803, i64 noundef %176, i64 noundef %177, ptr noundef @.str.44)
  br label %179

179:                                              ; preds = %175
  br label %180

180:                                              ; preds = %179
  store i8 1, ptr %14, align 1, !tbaa !15
  %181 = load i8, ptr %14, align 1, !tbaa !15, !range !17, !noundef !18
  %182 = trunc i8 %181 to i1
  %183 = zext i1 %182 to i8
  store i8 %183, ptr %14, align 1, !tbaa !15
  br label %184

184:                                              ; preds = %180
  br label %185

185:                                              ; preds = %184
  store i32 -1, ptr %13, align 4, !tbaa !11
  br label %186

186:                                              ; preds = %185
  br label %187

187:                                              ; preds = %186
  br label %188

188:                                              ; preds = %187, %166, %163
  br label %189

189:                                              ; preds = %188, %39
  %190 = load i32, ptr %13, align 4, !tbaa !11
  store i32 %190, ptr %6, align 4
  store i32 1, ptr %16, align 4
  br label %191

191:                                              ; preds = %189, %159
  call void @llvm.lifetime.end.p0(i64 1, ptr %14) #8
  call void @llvm.lifetime.end.p0(i64 4, ptr %13) #8
  call void @llvm.lifetime.end.p0(i64 8, ptr %12) #8
  %192 = load i32, ptr %6, align 4
  ret i32 %192
}