; Function Attrs: nounwind uwtable
define range(i32 -1, 1) i32 @H5HF_sects_debug(ptr noundef %0, i64 noundef %1, ptr noundef %2, i32 noundef %3, i32 noundef %4) local_unnamed_addr #0 {
  %6 = alloca %struct.H5HF_debug_iter_ud2_t, align 8
  %7 = load i8, ptr @H5HF_init_g, align 1, !tbaa !3, !range !7, !noundef !8
  %8 = trunc nuw i8 %7 to i1
  %9 = load i8, ptr @H5_libterm_g, align 1, !range !7
  %10 = trunc nuw i8 %9 to i1
  %11 = select i1 %8, i1 true, i1 %10
  br i1 %11, label %12, label %.thread, !prof !9

.thread:                                          ; preds = %5
  store i8 1, ptr @H5HF_init_g, align 1, !tbaa !3
  br label %15

12:                                               ; preds = %5
  %13 = xor i1 %10, true
  %14 = select i1 %8, i1 true, i1 %13
  br i1 %14, label %15, label %57, !prof !100

15:                                               ; preds = %.thread, %12
  %16 = tail call ptr @H5HF__hdr_protect(ptr noundef %0, i64 noundef %1, i32 noundef 128) #9
  %17 = icmp eq ptr %16, null
  br i1 %17, label %46, label %18

18:                                               ; preds = %15
  %19 = tail call i32 @H5HF__space_start(ptr noundef nonnull %16, i1 noundef zeroext false) #9
  %20 = icmp slt i32 %19, 0
  br i1 %20, label %21, label %25

21:                                               ; preds = %18
  %22 = load i64, ptr @H5E_HEAP_g, align 8, !tbaa !11
  %23 = load i64, ptr @H5E_CANTINIT_g, align 8, !tbaa !11
  %24 = tail call i32 (ptr, ptr, i32, i64, i64, ptr, ...) @H5E_printf_stack(ptr noundef nonnull @.str, ptr noundef nonnull @__func__.H5HF_sects_debug, i32 noundef 780, i64 noundef %22, i64 noundef %23, ptr noundef nonnull @.str.51) #9
  br label %50

25:                                               ; preds = %18
  %26 = getelementptr inbounds nuw i8, ptr %16, i64 640
  %27 = load ptr, ptr %26, align 8, !tbaa !108
  %.not = icmp eq ptr %27, null
  br i1 %.not, label %50, label %28

28:                                               ; preds = %25
  call void @llvm.lifetime.start.p0(i64 24, ptr nonnull %6) #9
  store ptr %27, ptr %6, align 8, !tbaa !124
  %29 = getelementptr inbounds nuw i8, ptr %6, i64 8
  store ptr %2, ptr %29, align 8, !tbaa !126
  %30 = getelementptr inbounds nuw i8, ptr %6, i64 16
  store i32 %3, ptr %30, align 8, !tbaa !127
  %31 = getelementptr inbounds nuw i8, ptr %6, i64 20
  store i32 %4, ptr %31, align 4, !tbaa !128
  %32 = call i32 @H5FS_sect_iterate(ptr noundef %0, ptr noundef nonnull %27, ptr noundef nonnull @H5HF_sects_debug_cb, ptr noundef nonnull %6) #9
  %33 = icmp slt i32 %32, 0
  br i1 %33, label %34, label %38

34:                                               ; preds = %28
  %35 = load i64, ptr @H5E_HEAP_g, align 8, !tbaa !11
  %36 = load i64, ptr @H5E_BADITER_g, align 8, !tbaa !11
  %37 = call i32 (ptr, ptr, i32, i64, i64, ptr, ...) @H5E_printf_stack(ptr noundef nonnull @.str, ptr noundef nonnull @__func__.H5HF_sects_debug, i32 noundef 794, i64 noundef %35, i64 noundef %36, ptr noundef nonnull @.str.53) #9
  br label %45

38:                                               ; preds = %28
  %39 = call i32 @H5HF__space_close(ptr noundef nonnull %16) #9
  %40 = icmp slt i32 %39, 0
  br i1 %40, label %41, label %45

41:                                               ; preds = %38
  %42 = load i64, ptr @H5E_HEAP_g, align 8, !tbaa !11
  %43 = load i64, ptr @H5E_CANTRELEASE_g, align 8, !tbaa !11
  %44 = call i32 (ptr, ptr, i32, i64, i64, ptr, ...) @H5E_printf_stack(ptr noundef nonnull @.str, ptr noundef nonnull @__func__.H5HF_sects_debug, i32 noundef 798, i64 noundef %42, i64 noundef %43, ptr noundef nonnull @.str.54) #9
  br label %45

45:                                               ; preds = %38, %41, %34
  %.2 = phi i32 [ -1, %34 ], [ -1, %41 ], [ 0, %38 ]
  call void @llvm.lifetime.end.p0(i64 24, ptr nonnull %6) #9
  br label %50

46:                                               ; preds = %15
  %47 = load i64, ptr @H5E_HEAP_g, align 8, !tbaa !11
  %48 = load i64, ptr @H5E_CANTPROTECT_g, align 8, !tbaa !11
  %49 = tail call i32 (ptr, ptr, i32, i64, i64, ptr, ...) @H5E_printf_stack(ptr noundef nonnull @.str, ptr noundef nonnull @__func__.H5HF_sects_debug, i32 noundef 776, i64 noundef %47, i64 noundef %48, ptr noundef nonnull @.str.43) #9
  br label %57

50:                                               ; preds = %45, %25, %21
  %.1.ph = phi i32 [ 0, %25 ], [ %.2, %45 ], [ -1, %21 ]
  %51 = call i32 @H5AC_unprotect(ptr noundef %0, ptr noundef nonnull @H5AC_FHEAP_HDR, i64 noundef %1, ptr noundef nonnull %16, i32 noundef 0) #9
  %52 = icmp slt i32 %51, 0
  br i1 %52, label %53, label %57

53:                                               ; preds = %50
  %54 = load i64, ptr @H5E_HEAP_g, align 8, !tbaa !11
  %55 = load i64, ptr @H5E_PROTECT_g, align 8, !tbaa !11
  %56 = call i32 (ptr, ptr, i32, i64, i64, ptr, ...) @H5E_printf_stack(ptr noundef nonnull @.str, ptr noundef nonnull @__func__.H5HF_sects_debug, i32 noundef 803, i64 noundef %54, i64 noundef %55, ptr noundef nonnull @.str.44) #9
  br label %57

57:                                               ; preds = %46, %12, %53, %50
  %.023 = phi i32 [ -1, %53 ], [ %.1.ph, %50 ], [ -1, %46 ], [ 0, %12 ]
  ret i32 %.023
}